target datalayout = "e-m:e-p270:32:32-p271:32:32-p272:64:64-i64:64-i128:128-f80:128-n8:16:32:64-S128"
target triple = "x86_64-pc-linux-gnu"

%struct._lv_anim_t = type { ptr, ptr, ptr, ptr, ptr, ptr, ptr, ptr, ptr, i32, i32, i32, i32, i32, i32, i32, i32, i32, %union._lv_anim_path_para_t, i32, i8 }
%union._lv_anim_path_para_t = type { %struct.lv_anim_bezier3_para_t }
%struct.lv_anim_bezier3_para_t = type { i16, i16, i16, i16 }

; Function Attrs: nounwind uwtable
define i32 @lv_anim_path_linear(ptr noundef %0) #0 {
  %2 = alloca ptr, align 8
  %3 = alloca i32, align 4
  %4 = alloca i32, align 4
  store ptr %0, ptr %2, align 8, !tbaa !21
  call void @llvm.lifetime.start.p0(i64 4, ptr %3) #4
  %5 = load ptr, ptr %2, align 8, !tbaa !21
  %6 = getelementptr inbounds nuw %struct._lv_anim_t, ptr %5, i32 0, i32 13
  %7 = load i32, ptr %6, align 8, !tbaa !27
  %8 = load ptr, ptr %2, align 8, !tbaa !21
  %9 = getelementptr inbounds nuw %struct._lv_anim_t, ptr %8, i32 0, i32 12
  %10 = load i32, ptr %9, align 4, !tbaa !32
  %11 = call i32 @lv_map(i32 noundef %7, i32 noundef 0, i32 noundef %10, i32 noundef 0, i32 noundef 1024)
  store i32 %11, ptr %3, align 4, !tbaa !26
  call void @llvm.lifetime.start.p0(i64 4, ptr %4) #4
  %12 = load i32, ptr %3, align 4, !tbaa !26
  %13 = load ptr, ptr %2, align 8, !tbaa !21
  %14 = getelementptr inbounds nuw %struct._lv_anim_t, ptr %13, i32 0, i32 11
  %15 = load i32, ptr %14, align 8, !tbaa !30
  %16 = load ptr, ptr %2, align 8, !tbaa !21
  %17 = getelementptr inbounds nuw %struct._lv_anim_t, ptr %16, i32 0, i32 9
  %18 = load i32, ptr %17, align 8, !tbaa !29
  %19 = sub nsw i32 %15, %18
  %20 = mul nsw i32 %12, %19
  store i32 %20, ptr %4, align 4, !tbaa !26
  %21 = load i32, ptr %4, align 4, !tbaa !26
  %22 = ashr i32 %21, 10
  store i32 %22, ptr %4, align 4, !tbaa !26
  %23 = load ptr, ptr %2, align 8, !tbaa !21
  %24 = getelementptr inbounds nuw %struct._lv_anim_t, ptr %23, i32 0, i32 9
  %25 = load i32, ptr %24, align 8, !tbaa !29
  %26 = load i32, ptr %4, align 4, !tbaa !26
  %27 = add nsw i32 %26, %25
  store i32 %27, ptr %4, align 4, !tbaa !26
  %28 = load i32, ptr %4, align 4, !tbaa !26
  call void @llvm.lifetime.end.p0(i64 4, ptr %4) #4
  call void @llvm.lifetime.end.p0(i64 4, ptr %3) #4
  ret i32 %28
}