; Function Attrs: nounwind uwtable
define i32 @lv_anim_path_linear(ptr nocapture noundef readonly %0) #0 {
  %2 = getelementptr inbounds nuw i8, ptr %0, i64 88
  %3 = load i32, ptr %2, align 8, !tbaa !25
  %4 = getelementptr inbounds nuw i8, ptr %0, i64 84
  %5 = load i32, ptr %4, align 4, !tbaa !30
  %6 = tail call i32 @lv_map(i32 noundef %3, i32 noundef 0, i32 noundef %5, i32 noundef 0, i32 noundef 1024) #8
  %7 = getelementptr inbounds nuw i8, ptr %0, i64 80
  %8 = load i32, ptr %7, align 8, !tbaa !28
  %9 = getelementptr inbounds nuw i8, ptr %0, i64 72
  %10 = load i32, ptr %9, align 8, !tbaa !27
  %11 = sub nsw i32 %8, %10
  %12 = mul nsw i32 %11, %6
  %13 = ashr i32 %12, 10
  %14 = add nsw i32 %13, %10
  ret i32 %14
}